; ModuleID = '30/3395.c'
source_filename = "30/3395.c"
target datalayout = "e-m:e-p270:32:32-p271:32:32-p272:64:64-i64:64-f80:128-n8:16:32:64-S128"
target triple = "x86_64-pc-linux-gnu"

@.str = private unnamed_addr constant [3 x i8] c"%d\00", align 1

; Function Attrs: noinline nounwind uwtable
define dso_local i32 @main() #0 {
  %1 = alloca i32, align 4
  %2 = alloca i32, align 4
  %3 = alloca i32, align 4
  %4 = alloca i32, align 4
  store i32 0, i32* %1, align 4
  store i32 1, i32* %3, align 4
  store i32 0, i32* %4, align 4
  %5 = call i32 (i8*, ...) @__isoc99_scanf(i8* getelementptr inbounds ([3 x i8], [3 x i8]* @.str, i64 0, i64 0), i32* %2)
  br label %6

6:                                                ; preds = %34, %0
  %7 = load i32, i32* %3, align 4
  %8 = load i32, i32* %2, align 4
  %9 = icmp sle i32 %7, %8
  br i1 %9, label %10, label %37

10:                                               ; preds = %6
  %11 = load i32, i32* %3, align 4
  %12 = srem i32 %11, 7
  %13 = icmp ne i32 %12, 0
  br i1 %13, label %14, label %32

14:                                               ; preds = %10
  %15 = load i32, i32* %3, align 4
  %16 = srem i32 %15, 10
  %17 = icmp ne i32 %16, 7
  br i1 %17, label %18, label %32

18:                                               ; preds = %14
  %19 = load i32, i32* %3, align 4
  %20 = sub nsw i32 %19, 70
  %21 = icmp sge i32 %20, 10
  br i1 %21, label %26, label %22

22:                                               ; preds = %18
  %23 = load i32, i32* %3, align 4
  %24 = sub nsw i32 70, %23
  %25 = icmp sgt i32 %24, 0
  br i1 %25, label %26, label %32

26:                                               ; preds = %22, %18
  %27 = load i32, i32* %4, align 4
  %28 = load i32, i32* %3, align 4
  %29 = load i32, i32* %3, align 4
  %30 = mul nsw i32 %28, %29
  %31 = add nsw i32 %27, %30
  store i32 %31, i32* %4, align 4
  br label %34

32:                                               ; preds = %22, %14, %10
  %33 = load i32, i32* %4, align 4
  store i32 %33, i32* %4, align 4
  br label %34

34:                                               ; preds = %32, %26
  %35 = load i32, i32* %3, align 4
  %36 = add nsw i32 %35, 1
  store i32 %36, i32* %3, align 4
  br label %6

37:                                               ; preds = %6
  %38 = load i32, i32* %4, align 4
  %39 = call i32 (i8*, ...) @printf(i8* getelementptr inbounds ([3 x i8], [3 x i8]* @.str, i64 0, i64 0), i32 %38)
  ret i32 0
}

declare dso_local i32 @__isoc99_scanf(i8*, ...) #1

declare dso_local i32 @printf(i8*, ...) #1


!llvm.module.flags = !{!0}
!llvm.ident = !{!1}

!0 = !{i32 1, !"wchar_size", i32 4}
!1 = !{!"clang version 10.0.0-4ubuntu1 "}
